target datalayout = "e-m:e-p270:32:32-p271:32:32-p272:64:64-i64:64-i128:128-f80:128-n8:16:32:64-S128"
target triple = "x86_64-pc-linux-gnu"

@.str.63 = private unnamed_addr constant [2 x i8] c"\0A\00", align 1
@.str.64 = private unnamed_addr constant [27 x i8] c"    simplemap [selection]\0A\00", align 1
@.str.65 = private unnamed_addr constant [77 x i8] c"This pass maps a small selection of simple coarse-grain cells to yosys gate\0A\00", align 1
@.str.66 = private unnamed_addr constant [72 x i8] c"primitives. The following internal cell types are mapped by this pass:\0A\00", align 1
@.str.67 = private unnamed_addr constant [38 x i8] c"  $not, $pos, $and, $or, $xor, $xnor\0A\00", align 1
@.str.68 = private unnamed_addr constant [68 x i8] c"  $reduce_and, $reduce_or, $reduce_xor, $reduce_xnor, $reduce_bool\0A\00", align 1
@.str.69 = private unnamed_addr constant [52 x i8] c"  $logic_not, $logic_and, $logic_or, $mux, $tribuf\0A\00", align 1
@.str.70 = private unnamed_addr constant [82 x i8] c"  $sr, $ff, $dff, $dffe, $dffsr, $dffsre, $adff, $adffe, $aldff, $aldffe, $sdff,\0A\00", align 1
@.str.71 = private unnamed_addr constant [49 x i8] c"  $sdffe, $sdffce, $dlatch, $adlatch, $dlatchsr\0A\00", align 1

; Function Attrs: mustprogress uwtable
define internal void @_ZN12_GLOBAL__N_113SimplemapPass4helpEv(ptr noundef nonnull align 8 dereferenceable(104) %0) unnamed_addr #4 align 2 {
  %2 = alloca ptr, align 8
  store ptr %0, ptr %2, align 8
  call void (ptr, ...) @_ZN5Yosys3logEPKcz(ptr noundef @.str.63)
  call void (ptr, ...) @_ZN5Yosys3logEPKcz(ptr noundef @.str.64)
  call void (ptr, ...) @_ZN5Yosys3logEPKcz(ptr noundef @.str.63)
  call void (ptr, ...) @_ZN5Yosys3logEPKcz(ptr noundef @.str.65)
  call void (ptr, ...) @_ZN5Yosys3logEPKcz(ptr noundef @.str.66)
  call void (ptr, ...) @_ZN5Yosys3logEPKcz(ptr noundef @.str.63)
  call void (ptr, ...) @_ZN5Yosys3logEPKcz(ptr noundef @.str.67)
  call void (ptr, ...) @_ZN5Yosys3logEPKcz(ptr noundef @.str.68)
  call void (ptr, ...) @_ZN5Yosys3logEPKcz(ptr noundef @.str.69)
  call void (ptr, ...) @_ZN5Yosys3logEPKcz(ptr noundef @.str.70)
  call void (ptr, ...) @_ZN5Yosys3logEPKcz(ptr noundef @.str.71)
  call void (ptr, ...) @_ZN5Yosys3logEPKcz(ptr noundef @.str.63)
  ret void
}